#include <math.h>
#include <stdio.h>
#include <stdlib.h>
#include <string.h>

int main(){
	char s[256];
	int i,n;
	gets(s);
	i=0;
	n=strlen(s);
	for(i=0;i<n;i++){
	if(s[i]!=' ')
		printf("%c",s[i]);
	if(s[i]==' '){
		if(i!=n-1&&s[i+1]!=' ')
			printf("%c",s[i]);
		if(i!=n-1&&s[i+1]==' ')
			continue;
	}
	}
	return 0;
}