; ModuleID = 'source-C-CXX/61/2640.c'
source_filename = "source-C-CXX/61/2640.c"
target datalayout = "e-m:e-p270:32:32-p271:32:32-p272:64:64-i64:64-f80:128-n8:16:32:64-S128"
target triple = "x86_64-pc-linux-gnu"

; Function Attrs: nounwind sspstrong uwtable
define dso_local i32 @main() local_unnamed_addr #0 {
  %1 = alloca [256 x i8], align 16
  %2 = getelementptr inbounds [256 x i8], [256 x i8]* %1, i64 0, i64 0
  call void @llvm.lifetime.start.p0i8(i64 256, i8* nonnull %2) #5
  %3 = call i32 (i8*, ...) bitcast (i32 (...)* @gets to i32 (i8*, ...)*)(i8* nonnull %2) #5
  %4 = call i64 @strlen(i8* noundef nonnull %2) #6
  %5 = trunc i64 %4 to i32
  %6 = icmp sgt i32 %5, 0
  br i1 %6, label %7, label %34

7:                                                ; preds = %0
  %8 = add i64 %4, 4294967295
  %9 = and i64 %8, 4294967295
  %10 = and i64 %4, 4294967295
  br label %11

11:                                               ; preds = %7, %32
  %12 = phi i64 [ 0, %7 ], [ %25, %32 ]
  %13 = getelementptr inbounds [256 x i8], [256 x i8]* %1, i64 0, i64 %12
  %14 = load i8, i8* %13, align 1, !tbaa !5
  %15 = icmp eq i8 %14, 32
  br i1 %15, label %20, label %16

16:                                               ; preds = %11
  %17 = sext i8 %14 to i32
  %18 = call i32 @putchar(i32 %17)
  %19 = load i8, i8* %13, align 1, !tbaa !5
  br label %20

20:                                               ; preds = %16, %11
  %21 = phi i8 [ %19, %16 ], [ 32, %11 ]
  %22 = icmp ne i8 %21, 32
  %23 = icmp eq i64 %12, %9
  %24 = select i1 %22, i1 true, i1 %23
  %25 = add nuw nsw i64 %12, 1
  br i1 %24, label %32, label %26

26:                                               ; preds = %20
  %27 = getelementptr inbounds [256 x i8], [256 x i8]* %1, i64 0, i64 %25
  %28 = load i8, i8* %27, align 1, !tbaa !5
  %29 = icmp eq i8 %28, 32
  br i1 %29, label %32, label %30

30:                                               ; preds = %26
  %31 = call i32 @putchar(i32 32)
  br label %32

32:                                               ; preds = %20, %26, %30
  %33 = icmp eq i64 %25, %10
  br i1 %33, label %34, label %11, !llvm.loop !8

34:                                               ; preds = %32, %0
  call void @llvm.lifetime.end.p0i8(i64 256, i8* nonnull %2) #5
  ret i32 0
}

; Function Attrs: argmemonly mustprogress nofree nosync nounwind willreturn
declare void @llvm.lifetime.start.p0i8(i64 immarg, i8* nocapture) #1

declare i32 @gets(...) local_unnamed_addr #2

; Function Attrs: argmemonly mustprogress nofree nounwind readonly willreturn
declare i64 @strlen(i8* nocapture) local_unnamed_addr #3

; Function Attrs: argmemonly mustprogress nofree nosync nounwind willreturn
declare void @llvm.lifetime.end.p0i8(i64 immarg, i8* nocapture) #1

; Function Attrs: nofree nounwind
declare noundef i32 @putchar(i32 noundef) local_unnamed_addr #4


!llvm.module.flags = !{!0, !1, !2, !3}
!llvm.ident = !{!4}

!0 = !{i32 1, !"wchar_size", i32 4}
!1 = !{i32 7, !"PIC Level", i32 2}
!2 = !{i32 7, !"PIE Level", i32 2}
!3 = !{i32 7, !"uwtable", i32 1}
!4 = !{!"clang version 13.0.0"}
!5 = !{!6, !6, i64 0}
!6 = !{!"omnipotent char", !7, i64 0}
!7 = !{!"Simple C/C++ TBAA"}
!8 = distinct !{!8, !9}
!9 = !{!"llvm.loop.mustprogress"}
